; Function Attrs: nofree norecurse nosync nounwind memory(read, inaccessiblemem: none) uwtable
define hidden ptr @luaH_Hgetshortstr(ptr noundef readonly captures(none) %0, ptr noundef readonly captures(address) %1) local_unnamed_addr #7 {
  %3 = getelementptr inbounds nuw i8, ptr %0, i64 24
  %4 = load ptr, ptr %3, align 8, !tbaa !18
  %5 = getelementptr inbounds nuw i8, ptr %1, i64 12
  %6 = load i32, ptr %5, align 4, !tbaa !25
  %7 = getelementptr inbounds nuw i8, ptr %0, i64 11
  %8 = load i8, ptr %7, align 1, !tbaa !20
  %9 = zext nneg i8 %8 to i32
  %notmask = shl nsw i32 -1, %9
  %10 = xor i32 %notmask, -1
  %11 = and i32 %6, %10
  %12 = zext nneg i32 %11 to i64
  %13 = getelementptr inbounds nuw %union.Node, ptr %4, i64 %12
  br label %14

14:                                               ; preds = %22, %2
  %.013 = phi ptr [ %13, %2 ], [ %26, %22 ]
  %15 = getelementptr inbounds nuw i8, ptr %.013, i64 9
  %16 = load i8, ptr %15, align 1, !tbaa !16
  %17 = icmp eq i8 %16, 68
  br i1 %17, label %18, label %22

18:                                               ; preds = %14
  %19 = getelementptr inbounds nuw i8, ptr %.013, i64 16
  %20 = load ptr, ptr %19, align 8, !tbaa !16
  %21 = icmp eq ptr %20, %1
  br i1 %21, label %27, label %22

22:                                               ; preds = %18, %14
  %23 = getelementptr inbounds nuw i8, ptr %.013, i64 12
  %24 = load i32, ptr %23, align 4, !tbaa !16
  %.not = icmp eq i32 %24, 0
  %25 = sext i32 %24 to i64
  %26 = getelementptr inbounds %union.Node, ptr %.013, i64 %25
  br i1 %.not, label %27, label %14

27:                                               ; preds = %18, %22
  %.1 = phi ptr [ @absentkey, %22 ], [ %.013, %18 ]
  ret ptr %.1
}